target datalayout = "e-m:e-p270:32:32-p271:32:32-p272:64:64-i64:64-i128:128-f80:128-n8:16:32:64-S128"
target triple = "x86_64-pc-linux-gnu"

@hf_telnet_data = internal global i32 0, align 4

; Function Attrs: null_pointer_is_valid sspstrong uwtable
define internal void @telnet_add_text(ptr noundef %0, ptr noundef %1, i32 noundef %2, i32 noundef %3) #0 {
  %5 = alloca ptr, align 8
  %6 = alloca ptr, align 8
  %7 = alloca i32, align 4
  %8 = alloca i32, align 4
  %9 = alloca i32, align 4
  %10 = alloca i32, align 4
  %11 = alloca i8, align 1
  %12 = alloca i8, align 1
  store ptr %0, ptr %5, align 8
  store ptr %1, ptr %6, align 8
  store i32 %2, ptr %7, align 4
  store i32 %3, ptr %8, align 4
  call void @llvm.lifetime.start.p0(i64 4, ptr %9) #7
  call void @llvm.lifetime.start.p0(i64 4, ptr %10) #7
  call void @llvm.lifetime.start.p0(i64 1, ptr %11) #7
  call void @llvm.lifetime.start.p0(i64 1, ptr %12) #7
  br label %13

13:                                               ; preds = %85, %4
  %14 = load i32, ptr %8, align 4
  %15 = icmp ne i32 %14, 0
  br i1 %15, label %16, label %20

16:                                               ; preds = %13
  %17 = load ptr, ptr %6, align 8
  %18 = load i32, ptr %7, align 4
  %19 = call zeroext i1 @tvb_offset_exists(ptr noundef %17, i32 noundef %18)
  br label %20

20:                                               ; preds = %16, %13
  %21 = phi i1 [ false, %13 ], [ %19, %16 ]
  br i1 %21, label %22, label %96

22:                                               ; preds = %20
  %23 = load ptr, ptr %6, align 8
  %24 = load i32, ptr %7, align 4
  %25 = load i32, ptr %8, align 4
  %26 = call i32 @tvb_find_line_end(ptr noundef %23, i32 noundef %24, i32 noundef %25, ptr noundef %9, i1 noundef zeroext false)
  store i32 %26, ptr %10, align 4
  %27 = load i32, ptr %9, align 4
  %28 = load i32, ptr %7, align 4
  %29 = sub i32 %27, %28
  %30 = load i32, ptr %8, align 4
  %31 = sub i32 %30, %29
  store i32 %31, ptr %8, align 4
  %32 = load i32, ptr %9, align 4
  %33 = load i32, ptr %7, align 4
  %34 = load i32, ptr %10, align 4
  %35 = add i32 %33, %34
  %36 = add i32 %35, 1
  %37 = icmp eq i32 %32, %36
  br i1 %37, label %38, label %85

38:                                               ; preds = %22
  %39 = load i32, ptr %8, align 4
  %40 = icmp sge i32 %39, 1
  br i1 %40, label %41, label %85

41:                                               ; preds = %38
  %42 = load ptr, ptr %6, align 8
  %43 = load i32, ptr %7, align 4
  %44 = load i32, ptr %10, align 4
  %45 = add i32 %43, %44
  %46 = call zeroext i8 @tvb_get_uint8(ptr noundef %42, i32 noundef %45)
  %47 = zext i8 %46 to i32
  %48 = icmp eq i32 %47, 13
  br i1 %48, label %49, label %84

49:                                               ; preds = %41
  store i8 1, ptr %12, align 1
  br label %50

50:                                               ; preds = %78, %49
  %51 = load i32, ptr %8, align 4
  %52 = icmp ne i32 %51, 0
  br i1 %52, label %53, label %57

53:                                               ; preds = %50
  %54 = load ptr, ptr %6, align 8
  %55 = load i32, ptr %9, align 4
  %56 = call zeroext i1 @tvb_offset_exists(ptr noundef %54, i32 noundef %55)
  br label %57

57:                                               ; preds = %53, %50
  %58 = phi i1 [ false, %50 ], [ %56, %53 ]
  br i1 %58, label %59, label %83

59:                                               ; preds = %57
  %60 = load ptr, ptr %6, align 8
  %61 = load i32, ptr %9, align 4
  %62 = call zeroext i8 @tvb_get_uint8(ptr noundef %60, i32 noundef %61)
  store i8 %62, ptr %11, align 1
  %63 = load i32, ptr %9, align 4
  %64 = add i32 %63, 1
  store i32 %64, ptr %9, align 4
  %65 = load i32, ptr %8, align 4
  %66 = add i32 %65, -1
  store i32 %66, ptr %8, align 4
  %67 = load i8, ptr %11, align 1
  %68 = zext i8 %67 to i32
  %69 = icmp eq i32 %68, 10
  br i1 %69, label %77, label %70

70:                                               ; preds = %59
  %71 = load i8, ptr %11, align 1
  %72 = zext i8 %71 to i32
  %73 = icmp eq i32 %72, 0
  br i1 %73, label %74, label %78

74:                                               ; preds = %70
  %75 = load i8, ptr %12, align 1, !range !9, !noundef !10
  %76 = trunc i8 %75 to i1
  br i1 %76, label %77, label %78

77:                                               ; preds = %74, %59
  br label %83

78:                                               ; preds = %74, %70
  %79 = load i8, ptr %11, align 1
  %80 = zext i8 %79 to i32
  %81 = icmp eq i32 %80, 13
  %82 = zext i1 %81 to i8
  store i8 %82, ptr %12, align 1
  br label %50, !llvm.loop !11

83:                                               ; preds = %77, %57
  br label %84

84:                                               ; preds = %83, %41
  br label %85

85:                                               ; preds = %84, %38, %22
  %86 = load i32, ptr %9, align 4
  %87 = load i32, ptr %7, align 4
  %88 = sub i32 %86, %87
  store i32 %88, ptr %10, align 4
  %89 = load ptr, ptr %5, align 8
  %90 = load i32, ptr @hf_telnet_data, align 4
  %91 = load ptr, ptr %6, align 8
  %92 = load i32, ptr %7, align 4
  %93 = load i32, ptr %10, align 4
  %94 = call ptr @proto_tree_add_item(ptr noundef %89, i32 noundef %90, ptr noundef %91, i32 noundef %92, i32 noundef %93, i32 noundef 0)
  %95 = load i32, ptr %9, align 4
  store i32 %95, ptr %7, align 4
  br label %13, !llvm.loop !12

96:                                               ; preds = %20
  call void @llvm.lifetime.end.p0(i64 1, ptr %12) #7
  call void @llvm.lifetime.end.p0(i64 1, ptr %11) #7
  call void @llvm.lifetime.end.p0(i64 4, ptr %10) #7
  call void @llvm.lifetime.end.p0(i64 4, ptr %9) #7
  ret void
}